target datalayout = "e-m:e-p270:32:32-p271:32:32-p272:64:64-i64:64-i128:128-f80:128-n8:16:32:64-S128"
target triple = "x86_64-pc-linux-gnu"

@.str.100 = private unnamed_addr constant [61 x i8] c"%s checks objects in a PostgreSQL database for corruption.\0A\0A\00", align 1
@.str.101 = private unnamed_addr constant [8 x i8] c"Usage:\0A\00", align 1
@.str.102 = private unnamed_addr constant [27 x i8] c"  %s [OPTION]... [DBNAME]\0A\00", align 1
@.str.103 = private unnamed_addr constant [18 x i8] c"\0ATarget options:\0A\00", align 1
@.str.104 = private unnamed_addr constant [55 x i8] c"  -a, --all                       check all databases\0A\00", align 1
@.str.105 = private unnamed_addr constant [62 x i8] c"  -d, --database=PATTERN          check matching database(s)\0A\00", align 1
@.str.106 = private unnamed_addr constant [69 x i8] c"  -D, --exclude-database=PATTERN  do NOT check matching database(s)\0A\00", align 1
@.str.107 = private unnamed_addr constant [60 x i8] c"  -i, --index=PATTERN             check matching index(es)\0A\00", align 1
@.str.108 = private unnamed_addr constant [67 x i8] c"  -I, --exclude-index=PATTERN     do NOT check matching index(es)\0A\00", align 1
@.str.109 = private unnamed_addr constant [62 x i8] c"  -r, --relation=PATTERN          check matching relation(s)\0A\00", align 1
@.str.110 = private unnamed_addr constant [69 x i8] c"  -R, --exclude-relation=PATTERN  do NOT check matching relation(s)\0A\00", align 1
@.str.111 = private unnamed_addr constant [60 x i8] c"  -s, --schema=PATTERN            check matching schema(s)\0A\00", align 1
@.str.112 = private unnamed_addr constant [67 x i8] c"  -S, --exclude-schema=PATTERN    do NOT check matching schema(s)\0A\00", align 1
@.str.113 = private unnamed_addr constant [59 x i8] c"  -t, --table=PATTERN             check matching table(s)\0A\00", align 1
@.str.114 = private unnamed_addr constant [66 x i8] c"  -T, --exclude-table=PATTERN     do NOT check matching table(s)\0A\00", align 1
@.str.115 = private unnamed_addr constant [86 x i8] c"      --no-dependent-indexes      do NOT expand list of relations to include indexes\0A\00", align 1
@.str.116 = private unnamed_addr constant [91 x i8] c"      --no-dependent-toast        do NOT expand list of relations to include TOAST tables\0A\00", align 1
@.str.117 = private unnamed_addr constant [76 x i8] c"      --no-strict-names           do NOT require patterns to match objects\0A\00", align 1
@.str.118 = private unnamed_addr constant [26 x i8] c"\0ATable checking options:\0A\00", align 1
@.str.119 = private unnamed_addr constant [73 x i8] c"      --exclude-toast-pointers    do NOT follow relation TOAST pointers\0A\00", align 1
@.str.120 = private unnamed_addr constant [78 x i8] c"      --on-error-stop             stop checking at end of first corrupt page\0A\00", align 1
@.str.121 = private unnamed_addr constant [85 x i8] c"      --skip=OPTION               do NOT check \22all-frozen\22 or \22all-visible\22 blocks\0A\00", align 1
@.str.122 = private unnamed_addr constant [85 x i8] c"      --startblock=BLOCK          begin checking table(s) at the given block number\0A\00", align 1
@.str.123 = private unnamed_addr constant [84 x i8] c"      --endblock=BLOCK            check table(s) only up to the given block number\0A\00", align 1
@.str.124 = private unnamed_addr constant [33 x i8] c"\0AB-tree index checking options:\0A\00", align 1
@.str.125 = private unnamed_addr constant [78 x i8] c"      --checkunique               check unique constraint if index is unique\0A\00", align 1
@.str.126 = private unnamed_addr constant [87 x i8] c"      --heapallindexed            check that all heap tuples are found within indexes\0A\00", align 1
@.str.127 = private unnamed_addr constant [74 x i8] c"      --parent-check              check index parent/child relationships\0A\00", align 1
@.str.128 = private unnamed_addr constant [74 x i8] c"      --rootdescend               search from root page to refind tuples\0A\00", align 1
@.str.129 = private unnamed_addr constant [22 x i8] c"\0AConnection options:\0A\00", align 1
@.str.130 = private unnamed_addr constant [76 x i8] c"  -h, --host=HOSTNAME             database server host or socket directory\0A\00", align 1
@.str.131 = private unnamed_addr constant [56 x i8] c"  -p, --port=PORT                 database server port\0A\00", align 1
@.str.132 = private unnamed_addr constant [59 x i8] c"  -U, --username=USERNAME         user name to connect as\0A\00", align 1
@.str.133 = private unnamed_addr constant [61 x i8] c"  -w, --no-password               never prompt for password\0A\00", align 1
@.str.134 = private unnamed_addr constant [57 x i8] c"  -W, --password                  force password prompt\0A\00", align 1
@.str.135 = private unnamed_addr constant [66 x i8] c"      --maintenance-db=DBNAME     alternate maintenance database\0A\00", align 1
@.str.136 = private unnamed_addr constant [17 x i8] c"\0AOther options:\0A\00", align 1
@.str.137 = private unnamed_addr constant [78 x i8] c"  -e, --echo                      show the commands being sent to the server\0A\00", align 1
@.str.138 = private unnamed_addr constant [86 x i8] c"  -j, --jobs=NUM                  use this many concurrent connections to the server\0A\00", align 1
@.str.139 = private unnamed_addr constant [61 x i8] c"  -P, --progress                  show progress information\0A\00", align 1
@.str.140 = private unnamed_addr constant [57 x i8] c"  -v, --verbose                   write a lot of output\0A\00", align 1
@.str.141 = private unnamed_addr constant [73 x i8] c"  -V, --version                   output version information, then exit\0A\00", align 1
@.str.142 = private unnamed_addr constant [62 x i8] c"      --install-missing           install missing extensions\0A\00", align 1
@.str.143 = private unnamed_addr constant [61 x i8] c"  -?, --help                      show this help, then exit\0A\00", align 1
@.str.144 = private unnamed_addr constant [23 x i8] c"\0AReport bugs to <%s>.\0A\00", align 1
@.str.145 = private unnamed_addr constant [32 x i8] c"pgsql-bugs@lists.postgresql.org\00", align 1
@.str.146 = private unnamed_addr constant [20 x i8] c"%s home page: <%s>\0A\00", align 1
@.str.147 = private unnamed_addr constant [11 x i8] c"PostgreSQL\00", align 1
@.str.148 = private unnamed_addr constant [28 x i8] c"https://www.postgresql.org/\00", align 1

; Function Attrs: nounwind uwtable
define internal void @help(ptr noundef %0) #0 {
  %2 = alloca ptr, align 8
  store ptr %0, ptr %2, align 8
  %3 = load ptr, ptr %2, align 8
  %4 = call i32 (ptr, ...) @pg_printf(ptr noundef @.str.100, ptr noundef %3)
  %5 = call i32 (ptr, ...) @pg_printf(ptr noundef @.str.101)
  %6 = load ptr, ptr %2, align 8
  %7 = call i32 (ptr, ...) @pg_printf(ptr noundef @.str.102, ptr noundef %6)
  %8 = call i32 (ptr, ...) @pg_printf(ptr noundef @.str.103)
  %9 = call i32 (ptr, ...) @pg_printf(ptr noundef @.str.104)
  %10 = call i32 (ptr, ...) @pg_printf(ptr noundef @.str.105)
  %11 = call i32 (ptr, ...) @pg_printf(ptr noundef @.str.106)
  %12 = call i32 (ptr, ...) @pg_printf(ptr noundef @.str.107)
  %13 = call i32 (ptr, ...) @pg_printf(ptr noundef @.str.108)
  %14 = call i32 (ptr, ...) @pg_printf(ptr noundef @.str.109)
  %15 = call i32 (ptr, ...) @pg_printf(ptr noundef @.str.110)
  %16 = call i32 (ptr, ...) @pg_printf(ptr noundef @.str.111)
  %17 = call i32 (ptr, ...) @pg_printf(ptr noundef @.str.112)
  %18 = call i32 (ptr, ...) @pg_printf(ptr noundef @.str.113)
  %19 = call i32 (ptr, ...) @pg_printf(ptr noundef @.str.114)
  %20 = call i32 (ptr, ...) @pg_printf(ptr noundef @.str.115)
  %21 = call i32 (ptr, ...) @pg_printf(ptr noundef @.str.116)
  %22 = call i32 (ptr, ...) @pg_printf(ptr noundef @.str.117)
  %23 = call i32 (ptr, ...) @pg_printf(ptr noundef @.str.118)
  %24 = call i32 (ptr, ...) @pg_printf(ptr noundef @.str.119)
  %25 = call i32 (ptr, ...) @pg_printf(ptr noundef @.str.120)
  %26 = call i32 (ptr, ...) @pg_printf(ptr noundef @.str.121)
  %27 = call i32 (ptr, ...) @pg_printf(ptr noundef @.str.122)
  %28 = call i32 (ptr, ...) @pg_printf(ptr noundef @.str.123)
  %29 = call i32 (ptr, ...) @pg_printf(ptr noundef @.str.124)
  %30 = call i32 (ptr, ...) @pg_printf(ptr noundef @.str.125)
  %31 = call i32 (ptr, ...) @pg_printf(ptr noundef @.str.126)
  %32 = call i32 (ptr, ...) @pg_printf(ptr noundef @.str.127)
  %33 = call i32 (ptr, ...) @pg_printf(ptr noundef @.str.128)
  %34 = call i32 (ptr, ...) @pg_printf(ptr noundef @.str.129)
  %35 = call i32 (ptr, ...) @pg_printf(ptr noundef @.str.130)
  %36 = call i32 (ptr, ...) @pg_printf(ptr noundef @.str.131)
  %37 = call i32 (ptr, ...) @pg_printf(ptr noundef @.str.132)
  %38 = call i32 (ptr, ...) @pg_printf(ptr noundef @.str.133)
  %39 = call i32 (ptr, ...) @pg_printf(ptr noundef @.str.134)
  %40 = call i32 (ptr, ...) @pg_printf(ptr noundef @.str.135)
  %41 = call i32 (ptr, ...) @pg_printf(ptr noundef @.str.136)
  %42 = call i32 (ptr, ...) @pg_printf(ptr noundef @.str.137)
  %43 = call i32 (ptr, ...) @pg_printf(ptr noundef @.str.138)
  %44 = call i32 (ptr, ...) @pg_printf(ptr noundef @.str.139)
  %45 = call i32 (ptr, ...) @pg_printf(ptr noundef @.str.140)
  %46 = call i32 (ptr, ...) @pg_printf(ptr noundef @.str.141)
  %47 = call i32 (ptr, ...) @pg_printf(ptr noundef @.str.142)
  %48 = call i32 (ptr, ...) @pg_printf(ptr noundef @.str.143)
  %49 = call i32 (ptr, ...) @pg_printf(ptr noundef @.str.144, ptr noundef @.str.145)
  %50 = call i32 (ptr, ...) @pg_printf(ptr noundef @.str.146, ptr noundef @.str.147, ptr noundef @.str.148)
  ret void
}