; Function Attrs: nounwind uwtable
define internal void @help(ptr noundef %0) #0 {
  %2 = tail call i32 (ptr, ...) @pg_printf(ptr noundef nonnull @.str.100, ptr noundef %0) #11
  %3 = tail call i32 (ptr, ...) @pg_printf(ptr noundef nonnull @.str.101) #11
  %4 = tail call i32 (ptr, ...) @pg_printf(ptr noundef nonnull @.str.102, ptr noundef %0) #11
  %5 = tail call i32 (ptr, ...) @pg_printf(ptr noundef nonnull @.str.103) #11
  %6 = tail call i32 (ptr, ...) @pg_printf(ptr noundef nonnull @.str.104) #11
  %7 = tail call i32 (ptr, ...) @pg_printf(ptr noundef nonnull @.str.105) #11
  %8 = tail call i32 (ptr, ...) @pg_printf(ptr noundef nonnull @.str.106) #11
  %9 = tail call i32 (ptr, ...) @pg_printf(ptr noundef nonnull @.str.107) #11
  %10 = tail call i32 (ptr, ...) @pg_printf(ptr noundef nonnull @.str.108) #11
  %11 = tail call i32 (ptr, ...) @pg_printf(ptr noundef nonnull @.str.109) #11
  %12 = tail call i32 (ptr, ...) @pg_printf(ptr noundef nonnull @.str.110) #11
  %13 = tail call i32 (ptr, ...) @pg_printf(ptr noundef nonnull @.str.111) #11
  %14 = tail call i32 (ptr, ...) @pg_printf(ptr noundef nonnull @.str.112) #11
  %15 = tail call i32 (ptr, ...) @pg_printf(ptr noundef nonnull @.str.113) #11
  %16 = tail call i32 (ptr, ...) @pg_printf(ptr noundef nonnull @.str.114) #11
  %17 = tail call i32 (ptr, ...) @pg_printf(ptr noundef nonnull @.str.115) #11
  %18 = tail call i32 (ptr, ...) @pg_printf(ptr noundef nonnull @.str.116) #11
  %19 = tail call i32 (ptr, ...) @pg_printf(ptr noundef nonnull @.str.117) #11
  %20 = tail call i32 (ptr, ...) @pg_printf(ptr noundef nonnull @.str.118) #11
  %21 = tail call i32 (ptr, ...) @pg_printf(ptr noundef nonnull @.str.119) #11
  %22 = tail call i32 (ptr, ...) @pg_printf(ptr noundef nonnull @.str.120) #11
  %23 = tail call i32 (ptr, ...) @pg_printf(ptr noundef nonnull @.str.121) #11
  %24 = tail call i32 (ptr, ...) @pg_printf(ptr noundef nonnull @.str.122) #11
  %25 = tail call i32 (ptr, ...) @pg_printf(ptr noundef nonnull @.str.123) #11
  %26 = tail call i32 (ptr, ...) @pg_printf(ptr noundef nonnull @.str.124) #11
  %27 = tail call i32 (ptr, ...) @pg_printf(ptr noundef nonnull @.str.125) #11
  %28 = tail call i32 (ptr, ...) @pg_printf(ptr noundef nonnull @.str.126) #11
  %29 = tail call i32 (ptr, ...) @pg_printf(ptr noundef nonnull @.str.127) #11
  %30 = tail call i32 (ptr, ...) @pg_printf(ptr noundef nonnull @.str.128) #11
  %31 = tail call i32 (ptr, ...) @pg_printf(ptr noundef nonnull @.str.129) #11
  %32 = tail call i32 (ptr, ...) @pg_printf(ptr noundef nonnull @.str.130) #11
  %33 = tail call i32 (ptr, ...) @pg_printf(ptr noundef nonnull @.str.131) #11
  %34 = tail call i32 (ptr, ...) @pg_printf(ptr noundef nonnull @.str.132) #11
  %35 = tail call i32 (ptr, ...) @pg_printf(ptr noundef nonnull @.str.133) #11
  %36 = tail call i32 (ptr, ...) @pg_printf(ptr noundef nonnull @.str.134) #11
  %37 = tail call i32 (ptr, ...) @pg_printf(ptr noundef nonnull @.str.135) #11
  %38 = tail call i32 (ptr, ...) @pg_printf(ptr noundef nonnull @.str.136) #11
  %39 = tail call i32 (ptr, ...) @pg_printf(ptr noundef nonnull @.str.137) #11
  %40 = tail call i32 (ptr, ...) @pg_printf(ptr noundef nonnull @.str.138) #11
  %41 = tail call i32 (ptr, ...) @pg_printf(ptr noundef nonnull @.str.139) #11
  %42 = tail call i32 (ptr, ...) @pg_printf(ptr noundef nonnull @.str.140) #11
  %43 = tail call i32 (ptr, ...) @pg_printf(ptr noundef nonnull @.str.141) #11
  %44 = tail call i32 (ptr, ...) @pg_printf(ptr noundef nonnull @.str.142) #11
  %45 = tail call i32 (ptr, ...) @pg_printf(ptr noundef nonnull @.str.143) #11
  %46 = tail call i32 (ptr, ...) @pg_printf(ptr noundef nonnull @.str.144, ptr noundef nonnull @.str.145) #11
  %47 = tail call i32 (ptr, ...) @pg_printf(ptr noundef nonnull @.str.146, ptr noundef nonnull @.str.147, ptr noundef nonnull @.str.148) #11
  ret void
}